
followme_car_MSS_MSS_CM3_0_app:     file format elf32-littlearm

Sections:
Idx Name          Size      VMA       LMA       File off  Algn
  0 .init         00000470  00000000  60000000  00008000  2**4
                  CONTENTS, ALLOC, LOAD, READONLY, DATA
  1 .text         00000358  00000470  60000470  00008470  2**2
                  CONTENTS, ALLOC, LOAD, READONLY, CODE
  2 .data         00000004  20000000  600007c8  00010000  2**2
                  CONTENTS, ALLOC, LOAD, DATA
  3 .bss          00000004  20000004  600007cc  00010004  2**0
                  ALLOC
  4 .comment      000000ac  00000000  00000000  00010004  2**0
                  CONTENTS, READONLY
  5 .debug_aranges 00000158  00000000  00000000  000100b0  2**0
                  CONTENTS, READONLY, DEBUGGING
  6 .debug_pubnames 0000025c  00000000  00000000  00010208  2**0
                  CONTENTS, READONLY, DEBUGGING
  7 .debug_info   00000f12  00000000  00000000  00010464  2**0
                  CONTENTS, READONLY, DEBUGGING
  8 .debug_abbrev 0000033c  00000000  00000000  00011376  2**0
                  CONTENTS, READONLY, DEBUGGING
  9 .debug_line   00000a1b  00000000  00000000  000116b2  2**0
                  CONTENTS, READONLY, DEBUGGING
 10 .debug_frame  00000420  00000000  00000000  000120d0  2**2
                  CONTENTS, READONLY, DEBUGGING
 11 .debug_str    0000079f  00000000  00000000  000124f0  2**0
                  CONTENTS, READONLY, DEBUGGING
 12 .debug_loc    0000066d  00000000  00000000  00012c8f  2**0
                  CONTENTS, READONLY, DEBUGGING
 13 .debug_macinfo 0000f23e  00000000  00000000  000132fc  2**0
                  CONTENTS, READONLY, DEBUGGING
 14 .ARM.attributes 00000025  00000000  00000000  0002253a  2**0
                  CONTENTS, READONLY
 15 .debug_ranges 00000138  00000000  00000000  0002255f  2**0
                  CONTENTS, READONLY, DEBUGGING

Disassembly of section .text:

00000470 <__do_global_dtors_aux>:
 470:	f240 0304 	movw	r3, #4
 474:	f2c2 0300 	movt	r3, #8192	; 0x2000
 478:	781a      	ldrb	r2, [r3, #0]
 47a:	b90a      	cbnz	r2, 480 <__do_global_dtors_aux+0x10>
 47c:	2001      	movs	r0, #1
 47e:	7018      	strb	r0, [r3, #0]
 480:	4770      	bx	lr
 482:	bf00      	nop

00000484 <frame_dummy>:
 484:	f240 0000 	movw	r0, #0
 488:	f2c2 0000 	movt	r0, #8192	; 0x2000
 48c:	b508      	push	{r3, lr}
 48e:	6803      	ldr	r3, [r0, #0]
 490:	b12b      	cbz	r3, 49e <frame_dummy+0x1a>
 492:	f240 0300 	movw	r3, #0
 496:	f2c0 0300 	movt	r3, #0
 49a:	b103      	cbz	r3, 49e <frame_dummy+0x1a>
 49c:	4798      	blx	r3
 49e:	bd08      	pop	{r3, pc}

000004a0 <initCar>:
 4a0:	b580      	push	{r7, lr}
 4a2:	af00      	add	r7, sp, #0
 4a4:	f000 f802 	bl	4ac <stopCar>
 4a8:	bd80      	pop	{r7, pc}
 4aa:	bf00      	nop

000004ac <stopCar>:
 4ac:	b580      	push	{r7, lr}
 4ae:	af00      	add	r7, sp, #0
 4b0:	f04f 0001 	mov.w	r0, #1
 4b4:	f04f 0101 	mov.w	r1, #1
 4b8:	f04f 0200 	mov.w	r2, #0
 4bc:	f04f 0300 	mov.w	r3, #0
 4c0:	f000 f86e 	bl	5a0 <moveCar>
 4c4:	bd80      	pop	{r7, pc}
 4c6:	bf00      	nop

000004c8 <moveCarForward>:
 4c8:	b580      	push	{r7, lr}
 4ca:	b082      	sub	sp, #8
 4cc:	af00      	add	r7, sp, #0
 4ce:	6078      	str	r0, [r7, #4]
 4d0:	f04f 0001 	mov.w	r0, #1
 4d4:	f04f 0101 	mov.w	r1, #1
 4d8:	687a      	ldr	r2, [r7, #4]
 4da:	687b      	ldr	r3, [r7, #4]
 4dc:	f000 f860 	bl	5a0 <moveCar>
 4e0:	f107 0708 	add.w	r7, r7, #8
 4e4:	46bd      	mov	sp, r7
 4e6:	bd80      	pop	{r7, pc}

000004e8 <moveCarReverse>:
 4e8:	b580      	push	{r7, lr}
 4ea:	b082      	sub	sp, #8
 4ec:	af00      	add	r7, sp, #0
 4ee:	6078      	str	r0, [r7, #4]
 4f0:	f04f 0000 	mov.w	r0, #0
 4f4:	f04f 0100 	mov.w	r1, #0
 4f8:	687a      	ldr	r2, [r7, #4]
 4fa:	687b      	ldr	r3, [r7, #4]
 4fc:	f000 f850 	bl	5a0 <moveCar>
 500:	f107 0708 	add.w	r7, r7, #8
 504:	46bd      	mov	sp, r7
 506:	bd80      	pop	{r7, pc}

00000508 <rotateCarRight>:
 508:	b580      	push	{r7, lr}
 50a:	b082      	sub	sp, #8
 50c:	af00      	add	r7, sp, #0
 50e:	6078      	str	r0, [r7, #4]
 510:	f04f 0001 	mov.w	r0, #1
 514:	f04f 0100 	mov.w	r1, #0
 518:	687a      	ldr	r2, [r7, #4]
 51a:	687b      	ldr	r3, [r7, #4]
 51c:	f000 f840 	bl	5a0 <moveCar>
 520:	f107 0708 	add.w	r7, r7, #8
 524:	46bd      	mov	sp, r7
 526:	bd80      	pop	{r7, pc}

00000528 <rotateCarLeft>:
 528:	b580      	push	{r7, lr}
 52a:	b082      	sub	sp, #8
 52c:	af00      	add	r7, sp, #0
 52e:	6078      	str	r0, [r7, #4]
 530:	f04f 0000 	mov.w	r0, #0
 534:	f04f 0101 	mov.w	r1, #1
 538:	687a      	ldr	r2, [r7, #4]
 53a:	687b      	ldr	r3, [r7, #4]
 53c:	f000 f830 	bl	5a0 <moveCar>
 540:	f107 0708 	add.w	r7, r7, #8
 544:	46bd      	mov	sp, r7
 546:	bd80      	pop	{r7, pc}

00000548 <turnCarRight>:
 548:	b580      	push	{r7, lr}
 54a:	b082      	sub	sp, #8
 54c:	af00      	add	r7, sp, #0
 54e:	6078      	str	r0, [r7, #4]
 550:	687b      	ldr	r3, [r7, #4]
 552:	ea4f 72d3 	mov.w	r2, r3, lsr #31
 556:	4413      	add	r3, r2
 558:	ea4f 0363 	mov.w	r3, r3, asr #1
 55c:	f04f 0001 	mov.w	r0, #1
 560:	f04f 0101 	mov.w	r1, #1
 564:	687a      	ldr	r2, [r7, #4]
 566:	f000 f81b 	bl	5a0 <moveCar>
 56a:	f107 0708 	add.w	r7, r7, #8
 56e:	46bd      	mov	sp, r7
 570:	bd80      	pop	{r7, pc}
 572:	bf00      	nop

00000574 <turnCarLeft>:
 574:	b580      	push	{r7, lr}
 576:	b082      	sub	sp, #8
 578:	af00      	add	r7, sp, #0
 57a:	6078      	str	r0, [r7, #4]
 57c:	687b      	ldr	r3, [r7, #4]
 57e:	ea4f 72d3 	mov.w	r2, r3, lsr #31
 582:	4413      	add	r3, r2
 584:	ea4f 0363 	mov.w	r3, r3, asr #1
 588:	f04f 0001 	mov.w	r0, #1
 58c:	f04f 0101 	mov.w	r1, #1
 590:	461a      	mov	r2, r3
 592:	687b      	ldr	r3, [r7, #4]
 594:	f000 f804 	bl	5a0 <moveCar>
 598:	f107 0708 	add.w	r7, r7, #8
 59c:	46bd      	mov	sp, r7
 59e:	bd80      	pop	{r7, pc}

000005a0 <moveCar>:
 5a0:	b480      	push	{r7}
 5a2:	b089      	sub	sp, #36	; 0x24
 5a4:	af00      	add	r7, sp, #0
 5a6:	60ba      	str	r2, [r7, #8]
 5a8:	607b      	str	r3, [r7, #4]
 5aa:	4603      	mov	r3, r0
 5ac:	73fb      	strb	r3, [r7, #15]
 5ae:	460b      	mov	r3, r1
 5b0:	73bb      	strb	r3, [r7, #14]
 5b2:	f240 0300 	movw	r3, #0
 5b6:	f2c4 0305 	movt	r3, #16389	; 0x4005
 5ba:	613b      	str	r3, [r7, #16]
 5bc:	f04f 0300 	mov.w	r3, #0
 5c0:	617b      	str	r3, [r7, #20]
 5c2:	f04f 0300 	mov.w	r3, #0
 5c6:	61bb      	str	r3, [r7, #24]
 5c8:	f04f 0300 	mov.w	r3, #0
 5cc:	61fb      	str	r3, [r7, #28]
 5ce:	68bb      	ldr	r3, [r7, #8]
 5d0:	2b00      	cmp	r3, #0
 5d2:	d01a      	beq.n	60a <moveCar+0x6a>
 5d4:	f240 73a0 	movw	r3, #1952	; 0x7a0
 5d8:	f2c0 0300 	movt	r3, #0
 5dc:	681b      	ldr	r3, [r3, #0]
 5de:	68ba      	ldr	r2, [r7, #8]
 5e0:	fb02 f203 	mul.w	r2, r2, r3
 5e4:	f248 531f 	movw	r3, #34079	; 0x851f
 5e8:	f2c5 13eb 	movt	r3, #20971	; 0x51eb
 5ec:	fb83 1302 	smull	r1, r3, r3, r2
 5f0:	ea4f 1163 	mov.w	r1, r3, asr #5
 5f4:	ea4f 73e2 	mov.w	r3, r2, asr #31
 5f8:	ebc3 0201 	rsb	r2, r3, r1
 5fc:	f240 73a4 	movw	r3, #1956	; 0x7a4
 600:	f2c0 0300 	movt	r3, #0
 604:	681b      	ldr	r3, [r3, #0]
 606:	4413      	add	r3, r2
 608:	61bb      	str	r3, [r7, #24]
 60a:	687b      	ldr	r3, [r7, #4]
 60c:	2b00      	cmp	r3, #0
 60e:	d01a      	beq.n	646 <moveCar+0xa6>
 610:	f240 73a0 	movw	r3, #1952	; 0x7a0
 614:	f2c0 0300 	movt	r3, #0
 618:	681b      	ldr	r3, [r3, #0]
 61a:	687a      	ldr	r2, [r7, #4]
 61c:	fb02 f203 	mul.w	r2, r2, r3
 620:	f248 531f 	movw	r3, #34079	; 0x851f
 624:	f2c5 13eb 	movt	r3, #20971	; 0x51eb
 628:	fb83 1302 	smull	r1, r3, r3, r2
 62c:	ea4f 1163 	mov.w	r1, r3, asr #5
 630:	ea4f 73e2 	mov.w	r3, r2, asr #31
 634:	ebc3 0201 	rsb	r2, r3, r1
 638:	f240 73a4 	movw	r3, #1956	; 0x7a4
 63c:	f2c0 0300 	movt	r3, #0
 640:	681b      	ldr	r3, [r3, #0]
 642:	4413      	add	r3, r2
 644:	61fb      	str	r3, [r7, #28]
 646:	7bbb      	ldrb	r3, [r7, #14]
 648:	697a      	ldr	r2, [r7, #20]
 64a:	ea82 0303 	eor.w	r3, r2, r3
 64e:	617b      	str	r3, [r7, #20]
 650:	7bfb      	ldrb	r3, [r7, #15]
 652:	ea4f 0343 	mov.w	r3, r3, lsl #1
 656:	697a      	ldr	r2, [r7, #20]
 658:	ea82 0303 	eor.w	r3, r2, r3
 65c:	617b      	str	r3, [r7, #20]
 65e:	69fb      	ldr	r3, [r7, #28]
 660:	ea4f 0383 	mov.w	r3, r3, lsl #2
 664:	697a      	ldr	r2, [r7, #20]
 666:	ea82 0303 	eor.w	r3, r2, r3
 66a:	617b      	str	r3, [r7, #20]
 66c:	69bb      	ldr	r3, [r7, #24]
 66e:	ea4f 2343 	mov.w	r3, r3, lsl #9
 672:	697a      	ldr	r2, [r7, #20]
 674:	ea82 0303 	eor.w	r3, r2, r3
 678:	617b      	str	r3, [r7, #20]
 67a:	693b      	ldr	r3, [r7, #16]
 67c:	697a      	ldr	r2, [r7, #20]
 67e:	601a      	str	r2, [r3, #0]
 680:	f107 0724 	add.w	r7, r7, #36	; 0x24
 684:	46bd      	mov	sp, r7
 686:	bc80      	pop	{r7}
 688:	4770      	bx	lr
 68a:	bf00      	nop

0000068c <main>:
 68c:	b580      	push	{r7, lr}
 68e:	b082      	sub	sp, #8
 690:	af00      	add	r7, sp, #0
 692:	f7ff ff05 	bl	4a0 <initCar>
 696:	f04f 0300 	mov.w	r3, #0
 69a:	603b      	str	r3, [r7, #0]
 69c:	f04f 0300 	mov.w	r3, #0
 6a0:	607b      	str	r3, [r7, #4]
 6a2:	683a      	ldr	r2, [r7, #0]
 6a4:	f248 437f 	movw	r3, #33919	; 0x847f
 6a8:	f2c0 031e 	movt	r3, #30
 6ac:	429a      	cmp	r2, r3
 6ae:	bfd4      	ite	le
 6b0:	2300      	movle	r3, #0
 6b2:	2301      	movgt	r3, #1
 6b4:	b2db      	uxtb	r3, r3
 6b6:	683a      	ldr	r2, [r7, #0]
 6b8:	f102 0201 	add.w	r2, r2, #1
 6bc:	603a      	str	r2, [r7, #0]
 6be:	2b00      	cmp	r3, #0
 6c0:	d006      	beq.n	6d0 <main+0x44>
 6c2:	687b      	ldr	r3, [r7, #4]
 6c4:	f103 0301 	add.w	r3, r3, #1
 6c8:	607b      	str	r3, [r7, #4]
 6ca:	f04f 0300 	mov.w	r3, #0
 6ce:	603b      	str	r3, [r7, #0]
 6d0:	687b      	ldr	r3, [r7, #4]
 6d2:	2b06      	cmp	r3, #6
 6d4:	d831      	bhi.n	73a <main+0xae>
 6d6:	a201      	add	r2, pc, #4	; (adr r2, 6dc <main+0x50>)
 6d8:	f852 f023 	ldr.w	pc, [r2, r3, lsl #2]
 6dc:	000006f9 	.word	0x000006f9
 6e0:	00000703 	.word	0x00000703
 6e4:	0000070d 	.word	0x0000070d
 6e8:	00000717 	.word	0x00000717
 6ec:	00000721 	.word	0x00000721
 6f0:	0000072b 	.word	0x0000072b
 6f4:	00000735 	.word	0x00000735
 6f8:	f04f 0032 	mov.w	r0, #50	; 0x32
 6fc:	f7ff fee4 	bl	4c8 <moveCarForward>
 700:	e01f      	b.n	742 <main+0xb6>
 702:	f04f 0032 	mov.w	r0, #50	; 0x32
 706:	f7ff feef 	bl	4e8 <moveCarReverse>
 70a:	e01a      	b.n	742 <main+0xb6>
 70c:	f04f 001e 	mov.w	r0, #30
 710:	f7ff fefa 	bl	508 <rotateCarRight>
 714:	e015      	b.n	742 <main+0xb6>
 716:	f04f 001e 	mov.w	r0, #30
 71a:	f7ff ff05 	bl	528 <rotateCarLeft>
 71e:	e010      	b.n	742 <main+0xb6>
 720:	f04f 0028 	mov.w	r0, #40	; 0x28
 724:	f7ff ff10 	bl	548 <turnCarRight>
 728:	e00b      	b.n	742 <main+0xb6>
 72a:	f04f 0028 	mov.w	r0, #40	; 0x28
 72e:	f7ff ff21 	bl	574 <turnCarLeft>
 732:	e006      	b.n	742 <main+0xb6>
 734:	f7ff feba 	bl	4ac <stopCar>
 738:	e003      	b.n	742 <main+0xb6>
 73a:	f04f 0300 	mov.w	r3, #0
 73e:	607b      	str	r3, [r7, #4]
 740:	e7af      	b.n	6a2 <main+0x16>
 742:	e7ae      	b.n	6a2 <main+0x16>

00000744 <SystemInit>:

/***************************************************************************//**
 * See system_a2fxxxm3f.h for details.
 */
void SystemInit(void)
{
 744:	b480      	push	{r7}
 746:	af00      	add	r7, sp, #0
    /*
     * Do not make use of global variables or make any asumptions regarding
     * memory content if modifying this function. The memory content has not been
     * initialised by the time this function is called by the start-up code.
     */
}
 748:	46bd      	mov	sp, r7
 74a:	bc80      	pop	{r7}
 74c:	4770      	bx	lr
 74e:	bf00      	nop

00000750 <__libc_init_array>:
 750:	b570      	push	{r4, r5, r6, lr}
 752:	f240 76c0 	movw	r6, #1984	; 0x7c0
 756:	f240 75c0 	movw	r5, #1984	; 0x7c0
 75a:	f2c0 0600 	movt	r6, #0
 75e:	f2c0 0500 	movt	r5, #0
 762:	1b76      	subs	r6, r6, r5
 764:	10b6      	asrs	r6, r6, #2
 766:	d006      	beq.n	776 <__libc_init_array+0x26>
 768:	2400      	movs	r4, #0
 76a:	f855 3024 	ldr.w	r3, [r5, r4, lsl #2]
 76e:	3401      	adds	r4, #1
 770:	4798      	blx	r3
 772:	42a6      	cmp	r6, r4
 774:	d8f9      	bhi.n	76a <__libc_init_array+0x1a>
 776:	f240 75c0 	movw	r5, #1984	; 0x7c0
 77a:	f240 76c4 	movw	r6, #1988	; 0x7c4
 77e:	f2c0 0500 	movt	r5, #0
 782:	f2c0 0600 	movt	r6, #0
 786:	1b76      	subs	r6, r6, r5
 788:	f000 f80e 	bl	7a8 <_init>
 78c:	10b6      	asrs	r6, r6, #2
 78e:	d006      	beq.n	79e <__libc_init_array+0x4e>
 790:	2400      	movs	r4, #0
 792:	f855 3024 	ldr.w	r3, [r5, r4, lsl #2]
 796:	3401      	adds	r4, #1
 798:	4798      	blx	r3
 79a:	42a6      	cmp	r6, r4
 79c:	d8f9      	bhi.n	792 <__libc_init_array+0x42>
 79e:	bd70      	pop	{r4, r5, r6, pc}

000007a0 <DUTY_RANGE>:
 7a0:	0032 0000                                   2...

000007a4 <DUTY_MIN>:
 7a4:	0028 0000                                   (...

000007a8 <_init>:
 7a8:	b5f8      	push	{r3, r4, r5, r6, r7, lr}
 7aa:	bf00      	nop
 7ac:	bcf8      	pop	{r3, r4, r5, r6, r7}
 7ae:	bc08      	pop	{r3}
 7b0:	469e      	mov	lr, r3
 7b2:	4770      	bx	lr

000007b4 <_fini>:
 7b4:	b5f8      	push	{r3, r4, r5, r6, r7, lr}
 7b6:	bf00      	nop
 7b8:	bcf8      	pop	{r3, r4, r5, r6, r7}
 7ba:	bc08      	pop	{r3}
 7bc:	469e      	mov	lr, r3
 7be:	4770      	bx	lr

000007c0 <__frame_dummy_init_array_entry>:
 7c0:	0485 0000                                   ....

000007c4 <__do_global_dtors_aux_fini_array_entry>:
 7c4:	0471 0000                                   q...
